target datalayout = "e-m:e-p270:32:32-p271:32:32-p272:64:64-i64:64-i128:128-f80:128-n8:16:32:64-S128"
target triple = "x86_64-pc-linux-gnu"

%struct.SUNMemoryHelper_ = type { ptr, ptr, ptr }

; Function Attrs: nounwind uwtable
define ptr @SUNMemoryHelper_NewEmpty(ptr noundef %0) #0 {
  %2 = alloca ptr, align 8
  %3 = alloca ptr, align 8
  %4 = alloca ptr, align 8
  %5 = alloca ptr, align 8
  store ptr %0, ptr %3, align 8, !tbaa !3
  %6 = load ptr, ptr %3, align 8, !tbaa !3
  %7 = icmp eq ptr %6, null
  br i1 %7, label %8, label %9

8:                                                ; preds = %1
  store ptr null, ptr %2, align 8
  br label %24

9:                                                ; preds = %1
  call void @llvm.lifetime.start.p0(i64 8, ptr %4) #6
  %10 = load ptr, ptr %3, align 8, !tbaa !3
  store ptr %10, ptr %4, align 8, !tbaa !3
  call void @llvm.lifetime.start.p0(i64 8, ptr %5) #6
  store ptr null, ptr %5, align 8, !tbaa !14
  %11 = call noalias ptr @malloc(i64 noundef 24) #7
  store ptr %11, ptr %5, align 8, !tbaa !14
  %12 = call noalias ptr @malloc(i64 noundef 56) #7
  %13 = load ptr, ptr %5, align 8, !tbaa !14
  %14 = getelementptr inbounds nuw %struct.SUNMemoryHelper_, ptr %13, i32 0, i32 1
  store ptr %12, ptr %14, align 8, !tbaa !16
  %15 = load ptr, ptr %5, align 8, !tbaa !14
  %16 = getelementptr inbounds nuw %struct.SUNMemoryHelper_, ptr %15, i32 0, i32 1
  %17 = load ptr, ptr %16, align 8, !tbaa !16
  call void @llvm.memset.p0.i64(ptr align 8 %17, i8 0, i64 56, i1 false)
  %18 = load ptr, ptr %5, align 8, !tbaa !14
  %19 = getelementptr inbounds nuw %struct.SUNMemoryHelper_, ptr %18, i32 0, i32 0
  store ptr null, ptr %19, align 8, !tbaa !19
  %20 = load ptr, ptr %3, align 8, !tbaa !3
  %21 = load ptr, ptr %5, align 8, !tbaa !14
  %22 = getelementptr inbounds nuw %struct.SUNMemoryHelper_, ptr %21, i32 0, i32 2
  store ptr %20, ptr %22, align 8, !tbaa !20
  %23 = load ptr, ptr %5, align 8, !tbaa !14
  store ptr %23, ptr %2, align 8
  call void @llvm.lifetime.end.p0(i64 8, ptr %5) #6
  call void @llvm.lifetime.end.p0(i64 8, ptr %4) #6
  br label %24

24:                                               ; preds = %9, %8
  %25 = load ptr, ptr %2, align 8
  ret ptr %25
}